target datalayout = "e-m:e-p270:32:32-p271:32:32-p272:64:64-i64:64-i128:128-f80:128-n8:16:32:64-S128"
target triple = "x86_64-pc-linux-gnu"

%struct.AVCodecContext = type { ptr, i32, i32, ptr, i32, i32, ptr, ptr, ptr, i64, i32, i32, ptr, i32, %struct.AVRational, %struct.AVRational, %struct.AVRational, i32, i32, i32, i32, i32, %struct.AVRational, i32, i32, i32, i32, i32, i32, i32, i32, i32, i32, i32, ptr, ptr, i32, float, float, float, float, float, float, float, float, float, i32, i32, i32, i32, i32, i32, i32, i32, i32, i32, i32, i32, ptr, ptr, ptr, i32, i32, i32, i32, i32, i32, i32, i32, i32, i32, %struct.AVChannelLayout, i32, i32, i32, i32, i32, i32, i32, i32, ptr, i32, i32, i32, float, float, i32, i32, i32, i32, i32, ptr, i64, i64, float, float, i32, i32, ptr, ptr, i32, i32, i32, i32, i32, ptr, ptr, ptr, ptr, i32, i32, [8 x i64], i32, i32, i32, i32, i32, i32, i32, ptr, ptr, i32, i32, i32, i32, i32, i32, i32, i32, i32, i32, ptr, ptr, i32, i32, ptr, ptr, ptr, ptr, i32, i32, i64, i32, i32, i64, ptr, i64, ptr, i32, ptr, i32 }
%struct.AVRational = type { i32, i32 }
%struct.AVChannelLayout = type { i32, i32, %union.anon.0, ptr }
%union.anon.0 = type { i64 }
%struct.BMVDecContext = type { ptr, ptr, [275200 x i8], [256 x i32], ptr }

@.str.2 = private unnamed_addr constant [25 x i8] c"Invalid dimension %dx%d\0A\00", align 1

; Function Attrs: cold nounwind optsize uwtable
define internal i32 @decode_init(ptr noundef %0) #0 {
  %2 = alloca i32, align 4
  %3 = alloca ptr, align 8
  %4 = alloca ptr, align 8
  %5 = alloca i32, align 4
  store ptr %0, ptr %3, align 8, !tbaa !4
  call void @llvm.lifetime.start.p0(i64 8, ptr %4) #8
  %6 = load ptr, ptr %3, align 8, !tbaa !4
  %7 = getelementptr inbounds nuw %struct.AVCodecContext, ptr %6, i32 0, i32 6
  %8 = load ptr, ptr %7, align 8, !tbaa !9
  store ptr %8, ptr %4, align 8, !tbaa !29
  %9 = load ptr, ptr %3, align 8, !tbaa !4
  %10 = load ptr, ptr %4, align 8, !tbaa !29
  %11 = getelementptr inbounds nuw %struct.BMVDecContext, ptr %10, i32 0, i32 0
  store ptr %9, ptr %11, align 8, !tbaa !31
  %12 = load ptr, ptr %3, align 8, !tbaa !4
  %13 = getelementptr inbounds nuw %struct.AVCodecContext, ptr %12, i32 0, i32 23
  store i32 11, ptr %13, align 8, !tbaa !33
  %14 = load ptr, ptr %3, align 8, !tbaa !4
  %15 = getelementptr inbounds nuw %struct.AVCodecContext, ptr %14, i32 0, i32 18
  %16 = load i32, ptr %15, align 8, !tbaa !34
  %17 = icmp ne i32 %16, 640
  br i1 %17, label %23, label %18

18:                                               ; preds = %1
  %19 = load ptr, ptr %3, align 8, !tbaa !4
  %20 = getelementptr inbounds nuw %struct.AVCodecContext, ptr %19, i32 0, i32 19
  %21 = load i32, ptr %20, align 4, !tbaa !35
  %22 = icmp ne i32 %21, 429
  br i1 %22, label %23, label %31

23:                                               ; preds = %18, %1
  %24 = load ptr, ptr %3, align 8, !tbaa !4
  %25 = load ptr, ptr %3, align 8, !tbaa !4
  %26 = getelementptr inbounds nuw %struct.AVCodecContext, ptr %25, i32 0, i32 18
  %27 = load i32, ptr %26, align 8, !tbaa !34
  %28 = load ptr, ptr %3, align 8, !tbaa !4
  %29 = getelementptr inbounds nuw %struct.AVCodecContext, ptr %28, i32 0, i32 19
  %30 = load i32, ptr %29, align 4, !tbaa !35
  call void (ptr, i32, ptr, ...) @av_log(ptr noundef %24, i32 noundef 16, ptr noundef @.str.2, i32 noundef %27, i32 noundef %30)
  store i32 -1094995529, ptr %2, align 4
  store i32 1, ptr %5, align 4
  br label %38

31:                                               ; preds = %18
  %32 = load ptr, ptr %4, align 8, !tbaa !29
  %33 = getelementptr inbounds nuw %struct.BMVDecContext, ptr %32, i32 0, i32 2
  %34 = getelementptr inbounds [275200 x i8], ptr %33, i64 0, i64 0
  %35 = getelementptr inbounds i8, ptr %34, i64 640
  %36 = load ptr, ptr %4, align 8, !tbaa !29
  %37 = getelementptr inbounds nuw %struct.BMVDecContext, ptr %36, i32 0, i32 1
  store ptr %35, ptr %37, align 8, !tbaa !36
  store i32 0, ptr %2, align 4
  store i32 1, ptr %5, align 4
  br label %38

38:                                               ; preds = %31, %23
  call void @llvm.lifetime.end.p0(i64 8, ptr %4) #8
  %39 = load i32, ptr %2, align 4
  ret i32 %39
}