; Function Attrs: cold nounwind optsize uwtable
define internal range(i32 -1094995529, 1) i32 @decode_init(ptr noundef %0) #0 {
  %2 = getelementptr inbounds nuw i8, ptr %0, i64 32
  %3 = load ptr, ptr %2, align 8, !tbaa !4
  store ptr %0, ptr %3, align 8, !tbaa !27
  %4 = getelementptr inbounds nuw i8, ptr %0, i64 136
  store i32 11, ptr %4, align 8, !tbaa !30
  %5 = getelementptr inbounds nuw i8, ptr %0, i64 112
  %6 = load i32, ptr %5, align 8, !tbaa !31
  %.not = icmp eq i32 %6, 640
  %7 = getelementptr inbounds nuw i8, ptr %0, i64 116
  %8 = load i32, ptr %7, align 4, !tbaa !32
  %.not11 = icmp eq i32 %8, 429
  %or.cond = select i1 %.not, i1 %.not11, i1 false
  br i1 %or.cond, label %9, label %._crit_edge

._crit_edge:                                      ; preds = %1
  tail call void (ptr, i32, ptr, ...) @av_log(ptr noundef nonnull %0, i32 noundef 16, ptr noundef nonnull @.str.2, i32 noundef %6, i32 noundef %8) #7
  br label %12

9:                                                ; preds = %1
  %10 = getelementptr inbounds nuw i8, ptr %3, i64 656
  %11 = getelementptr inbounds nuw i8, ptr %3, i64 8
  store ptr %10, ptr %11, align 8, !tbaa !33
  br label %12

12:                                               ; preds = %9, %._crit_edge
  %.0 = phi i32 [ -1094995529, %._crit_edge ], [ 0, %9 ]
  ret i32 %.0
}